target datalayout = "e-m:e-p270:32:32-p271:32:32-p272:64:64-i64:64-i128:128-f80:128-n8:16:32:64-S128"
target triple = "x86_64-unknown-linux-gnu"

%struct.Token = type { i32, ptr, i64, x86_fp80, ptr, i32, ptr, ptr, ptr, ptr, i32, i32, i8, i8, ptr, ptr }
%struct.File = type { ptr, i32, ptr, ptr, i32 }
%struct.Type = type { i32, i32, i32, i8, i8, ptr, ptr, ptr, ptr, i32, ptr, ptr, ptr, i8, i8, ptr, ptr, i8, ptr }

@.str.110 = private unnamed_addr constant [20 x i8] c"invalid line marker\00", align 1
@.str.111 = private unnamed_addr constant [18 x i8] c"filename expected\00", align 1

; Function Attrs: nounwind uwtable
define internal ptr @new_eof(ptr noundef %tok) #0 {
entry:
  %tok.addr = alloca ptr, align 8
  %t = alloca ptr, align 8
  store ptr %tok, ptr %tok.addr, align 8
  %0 = load ptr, ptr %tok.addr, align 8
  %call = call ptr @copy_token(ptr noundef %0)
  store ptr %call, ptr %t, align 8
  %1 = load ptr, ptr %t, align 8
  %kind = getelementptr inbounds %struct.Token, ptr %1, i32 0, i32 0
  store i32 6, ptr %kind, align 16
  %2 = load ptr, ptr %t, align 8
  %len = getelementptr inbounds %struct.Token, ptr %2, i32 0, i32 5
  store i32 0, ptr %len, align 8
  %3 = load ptr, ptr %t, align 8
  ret ptr %3
}

; Function Attrs: nounwind uwtable
define internal ptr @copy_token(ptr noundef %tok) #0 {
entry:
  %tok.addr = alloca ptr, align 8
  %t = alloca ptr, align 8
  store ptr %tok, ptr %tok.addr, align 8
  %call = call noalias ptr @calloc(i64 noundef 1, i64 noundef 128) #9
  store ptr %call, ptr %t, align 8
  %0 = load ptr, ptr %t, align 8
  %1 = load ptr, ptr %tok.addr, align 8
  call void @llvm.memcpy.p0.p0.i64(ptr align 16 %0, ptr align 16 %1, i64 128, i1 false)
  %2 = load ptr, ptr %t, align 8
  %next = getelementptr inbounds %struct.Token, ptr %2, i32 0, i32 1
  store ptr null, ptr %next, align 8
  %3 = load ptr, ptr %t, align 8
  ret ptr %3
}

; Function Attrs: nounwind uwtable
define internal ptr @copy_line(ptr noundef %rest, ptr noundef %tok) #0 {
entry:
  %rest.addr = alloca ptr, align 8
  %tok.addr = alloca ptr, align 8
  %head = alloca %struct.Token, align 16
  %cur = alloca ptr, align 8
  store ptr %rest, ptr %rest.addr, align 8
  store ptr %tok, ptr %tok.addr, align 8
  call void @llvm.memset.p0.i64(ptr align 16 %head, i8 0, i64 128, i1 false)
  store ptr %head, ptr %cur, align 8
  br label %for.cond

for.cond:                                         ; preds = %for.inc, %entry
  %0 = load ptr, ptr %tok.addr, align 8
  %at_bol = getelementptr inbounds %struct.Token, ptr %0, i32 0, i32 12
  %1 = load i8, ptr %at_bol, align 8
  %tobool = trunc i8 %1 to i1
  %lnot = xor i1 %tobool, true
  br i1 %lnot, label %for.body, label %for.end

for.body:                                         ; preds = %for.cond
  %2 = load ptr, ptr %tok.addr, align 8
  %call = call ptr @copy_token(ptr noundef %2)
  %3 = load ptr, ptr %cur, align 8
  %next = getelementptr inbounds %struct.Token, ptr %3, i32 0, i32 1
  store ptr %call, ptr %next, align 8
  store ptr %call, ptr %cur, align 8
  br label %for.inc

for.inc:                                          ; preds = %for.body
  %4 = load ptr, ptr %tok.addr, align 8
  %next1 = getelementptr inbounds %struct.Token, ptr %4, i32 0, i32 1
  %5 = load ptr, ptr %next1, align 8
  store ptr %5, ptr %tok.addr, align 8
  br label %for.cond, !llvm.loop !47

for.end:                                          ; preds = %for.cond
  %6 = load ptr, ptr %tok.addr, align 8
  %call2 = call ptr @new_eof(ptr noundef %6)
  %7 = load ptr, ptr %cur, align 8
  %next3 = getelementptr inbounds %struct.Token, ptr %7, i32 0, i32 1
  store ptr %call2, ptr %next3, align 8
  %8 = load ptr, ptr %tok.addr, align 8
  %9 = load ptr, ptr %rest.addr, align 8
  store ptr %8, ptr %9, align 8
  %next4 = getelementptr inbounds %struct.Token, ptr %head, i32 0, i32 1
  %10 = load ptr, ptr %next4, align 8
  ret ptr %10
}

; Function Attrs: nounwind uwtable
define internal void @read_line_marker(ptr noundef %rest, ptr noundef %tok) #0 {
entry:
  %rest.addr = alloca ptr, align 8
  %tok.addr = alloca ptr, align 8
  %start = alloca ptr, align 8
  store ptr %rest, ptr %rest.addr, align 8
  store ptr %tok, ptr %tok.addr, align 8
  %0 = load ptr, ptr %tok.addr, align 8
  store ptr %0, ptr %start, align 8
  %1 = load ptr, ptr %rest.addr, align 8
  %2 = load ptr, ptr %tok.addr, align 8
  %call = call ptr @copy_line(ptr noundef %1, ptr noundef %2)
  %call1 = call ptr @preprocess(ptr noundef %call)
  store ptr %call1, ptr %tok.addr, align 8
  %3 = load ptr, ptr %tok.addr, align 8
  %kind = getelementptr inbounds %struct.Token, ptr %3, i32 0, i32 0
  %4 = load i32, ptr %kind, align 16
  %cmp = icmp ne i32 %4, 4
  br i1 %cmp, label %if.then, label %lor.lhs.false

lor.lhs.false:                                    ; preds = %entry
  %5 = load ptr, ptr %tok.addr, align 8
  %ty = getelementptr inbounds %struct.Token, ptr %5, i32 0, i32 6
  %6 = load ptr, ptr %ty, align 16
  %kind2 = getelementptr inbounds %struct.Type, ptr %6, i32 0, i32 0
  %7 = load i32, ptr %kind2, align 8
  %cmp3 = icmp ne i32 %7, 4
  br i1 %cmp3, label %if.then, label %if.end

if.then:                                          ; preds = %lor.lhs.false, %entry
  %8 = load ptr, ptr %tok.addr, align 8
  call void (ptr, ptr, ...) @error_tok(ptr noundef %8, ptr noundef @.str.110) #11
  unreachable

if.end:                                           ; preds = %lor.lhs.false
  %9 = load ptr, ptr %tok.addr, align 8
  %val = getelementptr inbounds %struct.Token, ptr %9, i32 0, i32 2
  %10 = load i64, ptr %val, align 16
  %11 = load ptr, ptr %start, align 8
  %line_no = getelementptr inbounds %struct.Token, ptr %11, i32 0, i32 10
  %12 = load i32, ptr %line_no, align 16
  %conv = sext i32 %12 to i64
  %sub = sub nsw i64 %10, %conv
  %conv4 = trunc i64 %sub to i32
  %13 = load ptr, ptr %start, align 8
  %file = getelementptr inbounds %struct.Token, ptr %13, i32 0, i32 8
  %14 = load ptr, ptr %file, align 16
  %line_delta = getelementptr inbounds %struct.File, ptr %14, i32 0, i32 4
  store i32 %conv4, ptr %line_delta, align 8
  %15 = load ptr, ptr %tok.addr, align 8
  %next = getelementptr inbounds %struct.Token, ptr %15, i32 0, i32 1
  %16 = load ptr, ptr %next, align 8
  store ptr %16, ptr %tok.addr, align 8
  %17 = load ptr, ptr %tok.addr, align 8
  %kind5 = getelementptr inbounds %struct.Token, ptr %17, i32 0, i32 0
  %18 = load i32, ptr %kind5, align 16
  %cmp6 = icmp eq i32 %18, 6
  br i1 %cmp6, label %if.then8, label %if.end9

if.then8:                                         ; preds = %if.end
  br label %return

if.end9:                                          ; preds = %if.end
  %19 = load ptr, ptr %tok.addr, align 8
  %kind10 = getelementptr inbounds %struct.Token, ptr %19, i32 0, i32 0
  %20 = load i32, ptr %kind10, align 16
  %cmp11 = icmp ne i32 %20, 3
  br i1 %cmp11, label %if.then13, label %if.end14

if.then13:                                        ; preds = %if.end9
  %21 = load ptr, ptr %tok.addr, align 8
  call void (ptr, ptr, ...) @error_tok(ptr noundef %21, ptr noundef @.str.111) #11
  unreachable

if.end14:                                         ; preds = %if.end9
  %22 = load ptr, ptr %tok.addr, align 8
  %str = getelementptr inbounds %struct.Token, ptr %22, i32 0, i32 7
  %23 = load ptr, ptr %str, align 8
  %24 = load ptr, ptr %start, align 8
  %file15 = getelementptr inbounds %struct.Token, ptr %24, i32 0, i32 8
  %25 = load ptr, ptr %file15, align 16
  %display_name = getelementptr inbounds %struct.File, ptr %25, i32 0, i32 3
  store ptr %23, ptr %display_name, align 8
  br label %return

return:                                           ; preds = %if.end14, %if.then8
  ret void
}