; Function Attrs: nounwind uwtable
define internal fastcc void @read_line_marker(ptr nocapture noundef writeonly %rest, ptr noundef %tok) unnamed_addr #0 {
entry:
  %head.i.sroa.3 = alloca ptr, align 8
  call void @llvm.lifetime.start.p0(i64 8, ptr nonnull %head.i.sroa.3)
  store ptr null, ptr %head.i.sroa.3, align 8
  %at_bol6.i = getelementptr inbounds %struct.Token, ptr %tok, i64 0, i32 12
  %0 = load i8, ptr %at_bol6.i, align 8
  %1 = and i8 %0, 1
  %tobool.not7.i = icmp eq i8 %1, 0
  br i1 %tobool.not7.i, label %for.body.i, label %copy_line.exit

for.body.i:                                       ; preds = %entry, %for.body.i
  %tok.addr.08.i = phi ptr [ %2, %for.body.i ], [ %tok, %entry ]
  %cur.09.sroa.phi.i = phi ptr [ %call.i.i.sroa.gep, %for.body.i ], [ %head.i.sroa.3, %entry ]
  %call.i.i = tail call noalias noundef dereferenceable_or_null(128) ptr @calloc(i64 noundef 1, i64 noundef 128) #15
  %call.i.i.sroa.gep = getelementptr inbounds %struct.Token, ptr %call.i.i, i64 0, i32 1
  tail call void @llvm.memcpy.p0.p0.i64(ptr noundef nonnull align 16 dereferenceable(128) %call.i.i, ptr noundef nonnull align 16 dereferenceable(128) %tok.addr.08.i, i64 128, i1 false)
  store ptr null, ptr %call.i.i.sroa.gep, align 8
  store ptr %call.i.i, ptr %cur.09.sroa.phi.i, align 8
  %next1.i = getelementptr inbounds %struct.Token, ptr %tok.addr.08.i, i64 0, i32 1
  %2 = load ptr, ptr %next1.i, align 8
  %at_bol.i = getelementptr inbounds %struct.Token, ptr %2, i64 0, i32 12
  %3 = load i8, ptr %at_bol.i, align 8
  %4 = and i8 %3, 1
  %tobool.not.i = icmp eq i8 %4, 0
  br i1 %tobool.not.i, label %for.body.i, label %copy_line.exit, !llvm.loop !41

copy_line.exit:                                   ; preds = %for.body.i, %entry
  %tok.addr.0.lcssa.i = phi ptr [ %tok, %entry ], [ %2, %for.body.i ]
  %cur.0.lcssa.i.sroa.phi = phi ptr [ %head.i.sroa.3, %entry ], [ %call.i.i.sroa.gep, %for.body.i ]
  %call.i.i.i = tail call noalias noundef dereferenceable_or_null(128) ptr @calloc(i64 noundef 1, i64 noundef 128) #15
  tail call void @llvm.memcpy.p0.p0.i64(ptr noundef nonnull align 16 dereferenceable(128) %call.i.i.i, ptr noundef nonnull align 16 dereferenceable(128) %tok.addr.0.lcssa.i, i64 128, i1 false)
  %next.i.i.i = getelementptr inbounds %struct.Token, ptr %call.i.i.i, i64 0, i32 1
  store ptr null, ptr %next.i.i.i, align 8
  store i32 6, ptr %call.i.i.i, align 16
  %len.i.i = getelementptr inbounds %struct.Token, ptr %call.i.i.i, i64 0, i32 5
  store i32 0, ptr %len.i.i, align 8
  store ptr %call.i.i.i, ptr %cur.0.lcssa.i.sroa.phi, align 8
  store ptr %tok.addr.0.lcssa.i, ptr %rest, align 8
  %head.i.sroa.3.0.head.i.sroa.3.0.head.i.sroa.3.0.head.i.sroa.3.8. = load ptr, ptr %head.i.sroa.3, align 8
  call void @llvm.lifetime.end.p0(i64 8, ptr nonnull %head.i.sroa.3)
  %call1 = tail call ptr @preprocess(ptr noundef %head.i.sroa.3.0.head.i.sroa.3.0.head.i.sroa.3.0.head.i.sroa.3.8.)
  %5 = load i32, ptr %call1, align 16
  %cmp.not = icmp eq i32 %5, 4
  br i1 %cmp.not, label %lor.lhs.false, label %if.then

lor.lhs.false:                                    ; preds = %copy_line.exit
  %ty = getelementptr inbounds %struct.Token, ptr %call1, i64 0, i32 6
  %6 = load ptr, ptr %ty, align 16
  %7 = load i32, ptr %6, align 8
  %cmp3.not = icmp eq i32 %7, 4
  br i1 %cmp3.not, label %if.end, label %if.then

if.then:                                          ; preds = %lor.lhs.false, %copy_line.exit
  tail call void (ptr, ptr, ...) @error_tok(ptr noundef nonnull %call1, ptr noundef nonnull @.str.110) #16
  unreachable

if.end:                                           ; preds = %lor.lhs.false
  %val = getelementptr inbounds %struct.Token, ptr %call1, i64 0, i32 2
  %8 = load i64, ptr %val, align 16
  %line_no = getelementptr inbounds %struct.Token, ptr %tok, i64 0, i32 10
  %9 = load i32, ptr %line_no, align 16
  %10 = trunc i64 %8 to i32
  %conv4 = sub i32 %10, %9
  %file = getelementptr inbounds %struct.Token, ptr %tok, i64 0, i32 8
  %11 = load ptr, ptr %file, align 16
  %line_delta = getelementptr inbounds %struct.File, ptr %11, i64 0, i32 4
  store i32 %conv4, ptr %line_delta, align 8
  %next = getelementptr inbounds %struct.Token, ptr %call1, i64 0, i32 1
  %12 = load ptr, ptr %next, align 8
  %13 = load i32, ptr %12, align 16
  switch i32 %13, label %if.then13 [
    i32 6, label %return
    i32 3, label %if.end14
  ]

if.then13:                                        ; preds = %if.end
  tail call void (ptr, ptr, ...) @error_tok(ptr noundef nonnull %12, ptr noundef nonnull @.str.111) #16
  unreachable

if.end14:                                         ; preds = %if.end
  %str = getelementptr inbounds %struct.Token, ptr %12, i64 0, i32 7
  %14 = load ptr, ptr %str, align 8
  %15 = load ptr, ptr %file, align 16
  %display_name = getelementptr inbounds %struct.File, ptr %15, i64 0, i32 3
  store ptr %14, ptr %display_name, align 8
  br label %return

return:                                           ; preds = %if.end, %if.end14
  ret void
}